target datalayout = "e-m:e-p270:32:32-p271:32:32-p272:64:64-i64:64-i128:128-f80:128-n8:16:32:64-S128"
target triple = "x86_64-pc-linux-gnu"

%struct.UTrie2 = type { ptr, ptr, ptr, i32, i32, i16, i16, i32, i32, i32, i32, ptr, i32, i8, i8, i16, ptr }

@_ZL9propsTrie = internal constant %struct.UTrie2 { ptr @_ZL15propsTrie_index, ptr getelementptr (i8, ptr @_ZL15propsTrie_index, i64 9496), ptr null, i32 4748, i32 19048, i16 2624, i16 4876, i32 0, i32 0, i32 1114112, i32 23792, ptr null, i32 0, i8 0, i8 0, i16 0, ptr null }, align 8

; Function Attrs: mustprogress nounwind uwtable
define double @u_getNumericValue_77(i32 noundef %0) #0 {
  %2 = alloca double, align 8
  %3 = alloca i32, align 4
  %4 = alloca i32, align 4
  %5 = alloca i32, align 4
  %6 = alloca i32, align 4
  %7 = alloca i32, align 4
  %8 = alloca i32, align 4
  %9 = alloca double, align 8
  %10 = alloca i32, align 4
  %11 = alloca i32, align 4
  %12 = alloca i32, align 4
  %13 = alloca i32, align 4
  %14 = alloca i32, align 4
  %15 = alloca i32, align 4
  %16 = alloca i32, align 4
  %17 = alloca i32, align 4
  %18 = alloca i32, align 4
  %19 = alloca i32, align 4
  store i32 %0, ptr %3, align 4, !tbaa !3
  call void @llvm.lifetime.start.p0(i64 4, ptr %4) #6
  call void @llvm.lifetime.start.p0(i64 4, ptr %5) #6
  %20 = load ptr, ptr @_ZL9propsTrie, align 8, !tbaa !7
  %21 = load i32, ptr %3, align 4, !tbaa !3
  %22 = icmp ult i32 %21, 55296
  br i1 %22, label %23, label %36

23:                                               ; preds = %1
  %24 = load ptr, ptr @_ZL9propsTrie, align 8, !tbaa !7
  %25 = load i32, ptr %3, align 4, !tbaa !3
  %26 = ashr i32 %25, 5
  %27 = add nsw i32 0, %26
  %28 = sext i32 %27 to i64
  %29 = getelementptr inbounds i16, ptr %24, i64 %28
  %30 = load i16, ptr %29, align 2, !tbaa !14
  %31 = zext i16 %30 to i32
  %32 = shl i32 %31, 2
  %33 = load i32, ptr %3, align 4, !tbaa !3
  %34 = and i32 %33, 31
  %35 = add nsw i32 %32, %34
  br label %91

36:                                               ; preds = %1
  %37 = load i32, ptr %3, align 4, !tbaa !3
  %38 = icmp ule i32 %37, 65535
  br i1 %38, label %39, label %55

39:                                               ; preds = %36
  %40 = load ptr, ptr @_ZL9propsTrie, align 8, !tbaa !7
  %41 = load i32, ptr %3, align 4, !tbaa !3
  %42 = icmp sle i32 %41, 56319
  %43 = select i1 %42, i32 320, i32 0
  %44 = load i32, ptr %3, align 4, !tbaa !3
  %45 = ashr i32 %44, 5
  %46 = add nsw i32 %43, %45
  %47 = sext i32 %46 to i64
  %48 = getelementptr inbounds i16, ptr %40, i64 %47
  %49 = load i16, ptr %48, align 2, !tbaa !14
  %50 = zext i16 %49 to i32
  %51 = shl i32 %50, 2
  %52 = load i32, ptr %3, align 4, !tbaa !3
  %53 = and i32 %52, 31
  %54 = add nsw i32 %51, %53
  br label %89

55:                                               ; preds = %36
  %56 = load i32, ptr %3, align 4, !tbaa !3
  %57 = icmp ugt i32 %56, 1114111
  br i1 %57, label %58, label %59

58:                                               ; preds = %55
  br label %87

59:                                               ; preds = %55
  %60 = load i32, ptr %3, align 4, !tbaa !3
  %61 = icmp sge i32 %60, 1114112
  br i1 %61, label %62, label %63

62:                                               ; preds = %59
  br label %85

63:                                               ; preds = %59
  %64 = load ptr, ptr @_ZL9propsTrie, align 8, !tbaa !7
  %65 = load ptr, ptr @_ZL9propsTrie, align 8, !tbaa !7
  %66 = load i32, ptr %3, align 4, !tbaa !3
  %67 = ashr i32 %66, 11
  %68 = add nsw i32 2080, %67
  %69 = sext i32 %68 to i64
  %70 = getelementptr inbounds i16, ptr %65, i64 %69
  %71 = load i16, ptr %70, align 2, !tbaa !14
  %72 = zext i16 %71 to i32
  %73 = load i32, ptr %3, align 4, !tbaa !3
  %74 = ashr i32 %73, 5
  %75 = and i32 %74, 63
  %76 = add nsw i32 %72, %75
  %77 = sext i32 %76 to i64
  %78 = getelementptr inbounds i16, ptr %64, i64 %77
  %79 = load i16, ptr %78, align 2, !tbaa !14
  %80 = zext i16 %79 to i32
  %81 = shl i32 %80, 2
  %82 = load i32, ptr %3, align 4, !tbaa !3
  %83 = and i32 %82, 31
  %84 = add nsw i32 %81, %83
  br label %85

85:                                               ; preds = %63, %62
  %86 = phi i32 [ 23792, %62 ], [ %84, %63 ]
  br label %87

87:                                               ; preds = %85, %58
  %88 = phi i32 [ 4876, %58 ], [ %86, %85 ]
  br label %89

89:                                               ; preds = %87, %39
  %90 = phi i32 [ %54, %39 ], [ %88, %87 ]
  br label %91

91:                                               ; preds = %89, %23
  %92 = phi i32 [ %35, %23 ], [ %90, %89 ]
  %93 = sext i32 %92 to i64
  %94 = getelementptr inbounds i16, ptr %20, i64 %93
  %95 = load i16, ptr %94, align 2, !tbaa !14
  %96 = zext i16 %95 to i32
  store i32 %96, ptr %4, align 4, !tbaa !3
  %97 = load i32, ptr %4, align 4, !tbaa !3
  %98 = lshr i32 %97, 6
  store i32 %98, ptr %5, align 4, !tbaa !3
  %99 = load i32, ptr %5, align 4, !tbaa !3
  %100 = icmp eq i32 %99, 0
  br i1 %100, label %101, label %102

101:                                              ; preds = %91
  store double 0xC19D6F3454000000, ptr %2, align 8
  store i32 1, ptr %6, align 4
  br label %238

102:                                              ; preds = %91
  %103 = load i32, ptr %5, align 4, !tbaa !3
  %104 = icmp slt i32 %103, 11
  br i1 %104, label %105, label %109

105:                                              ; preds = %102
  %106 = load i32, ptr %5, align 4, !tbaa !3
  %107 = sub nsw i32 %106, 1
  %108 = sitofp i32 %107 to double
  store double %108, ptr %2, align 8
  store i32 1, ptr %6, align 4
  br label %238

109:                                              ; preds = %102
  %110 = load i32, ptr %5, align 4, !tbaa !3
  %111 = icmp slt i32 %110, 21
  br i1 %111, label %112, label %116

112:                                              ; preds = %109
  %113 = load i32, ptr %5, align 4, !tbaa !3
  %114 = sub nsw i32 %113, 11
  %115 = sitofp i32 %114 to double
  store double %115, ptr %2, align 8
  store i32 1, ptr %6, align 4
  br label %238

116:                                              ; preds = %109
  %117 = load i32, ptr %5, align 4, !tbaa !3
  %118 = icmp slt i32 %117, 176
  br i1 %118, label %119, label %123

119:                                              ; preds = %116
  %120 = load i32, ptr %5, align 4, !tbaa !3
  %121 = sub nsw i32 %120, 21
  %122 = sitofp i32 %121 to double
  store double %122, ptr %2, align 8
  store i32 1, ptr %6, align 4
  br label %238

123:                                              ; preds = %116
  %124 = load i32, ptr %5, align 4, !tbaa !3
  %125 = icmp slt i32 %124, 480
  br i1 %125, label %126, label %138

126:                                              ; preds = %123
  call void @llvm.lifetime.start.p0(i64 4, ptr %7) #6
  %127 = load i32, ptr %5, align 4, !tbaa !3
  %128 = ashr i32 %127, 4
  %129 = sub nsw i32 %128, 12
  store i32 %129, ptr %7, align 4, !tbaa !3
  call void @llvm.lifetime.start.p0(i64 4, ptr %8) #6
  %130 = load i32, ptr %5, align 4, !tbaa !3
  %131 = and i32 %130, 15
  %132 = add nsw i32 %131, 1
  store i32 %132, ptr %8, align 4, !tbaa !3
  %133 = load i32, ptr %7, align 4, !tbaa !3
  %134 = sitofp i32 %133 to double
  %135 = load i32, ptr %8, align 4, !tbaa !3
  %136 = sitofp i32 %135 to double
  %137 = fdiv double %134, %136
  store double %137, ptr %2, align 8
  store i32 1, ptr %6, align 4
  call void @llvm.lifetime.end.p0(i64 4, ptr %8) #6
  call void @llvm.lifetime.end.p0(i64 4, ptr %7) #6
  br label %238

138:                                              ; preds = %123
  %139 = load i32, ptr %5, align 4, !tbaa !3
  %140 = icmp slt i32 %139, 768
  br i1 %140, label %141, label %173

141:                                              ; preds = %138
  call void @llvm.lifetime.start.p0(i64 8, ptr %9) #6
  call void @llvm.lifetime.start.p0(i64 4, ptr %10) #6
  %142 = load i32, ptr %5, align 4, !tbaa !3
  %143 = ashr i32 %142, 5
  %144 = sub nsw i32 %143, 14
  store i32 %144, ptr %10, align 4, !tbaa !3
  call void @llvm.lifetime.start.p0(i64 4, ptr %11) #6
  %145 = load i32, ptr %5, align 4, !tbaa !3
  %146 = and i32 %145, 31
  %147 = add nsw i32 %146, 2
  store i32 %147, ptr %11, align 4, !tbaa !3
  %148 = load i32, ptr %10, align 4, !tbaa !3
  %149 = sitofp i32 %148 to double
  store double %149, ptr %9, align 8, !tbaa !19
  br label %150

150:                                              ; preds = %153, %141
  %151 = load i32, ptr %11, align 4, !tbaa !3
  %152 = icmp sge i32 %151, 4
  br i1 %152, label %153, label %158

153:                                              ; preds = %150
  %154 = load double, ptr %9, align 8, !tbaa !19
  %155 = fmul double %154, 1.000000e+04
  store double %155, ptr %9, align 8, !tbaa !19
  %156 = load i32, ptr %11, align 4, !tbaa !3
  %157 = sub nsw i32 %156, 4
  store i32 %157, ptr %11, align 4, !tbaa !3
  br label %150, !llvm.loop !21

158:                                              ; preds = %150
  %159 = load i32, ptr %11, align 4, !tbaa !3
  switch i32 %159, label %170 [
    i32 3, label %160
    i32 2, label %163
    i32 1, label %166
    i32 0, label %169
  ]

160:                                              ; preds = %158
  %161 = load double, ptr %9, align 8, !tbaa !19
  %162 = fmul double %161, 1.000000e+03
  store double %162, ptr %9, align 8, !tbaa !19
  br label %171

163:                                              ; preds = %158
  %164 = load double, ptr %9, align 8, !tbaa !19
  %165 = fmul double %164, 1.000000e+02
  store double %165, ptr %9, align 8, !tbaa !19
  br label %171

166:                                              ; preds = %158
  %167 = load double, ptr %9, align 8, !tbaa !19
  %168 = fmul double %167, 1.000000e+01
  store double %168, ptr %9, align 8, !tbaa !19
  br label %171

169:                                              ; preds = %158
  br label %170

170:                                              ; preds = %158, %169
  br label %171

171:                                              ; preds = %170, %166, %163, %160
  %172 = load double, ptr %9, align 8, !tbaa !19
  store double %172, ptr %2, align 8
  store i32 1, ptr %6, align 4
  call void @llvm.lifetime.end.p0(i64 4, ptr %11) #6
  call void @llvm.lifetime.end.p0(i64 4, ptr %10) #6
  call void @llvm.lifetime.end.p0(i64 8, ptr %9) #6
  br label %238

173:                                              ; preds = %138
  %174 = load i32, ptr %5, align 4, !tbaa !3
  %175 = icmp slt i32 %174, 804
  br i1 %175, label %176, label %201

176:                                              ; preds = %173
  call void @llvm.lifetime.start.p0(i64 4, ptr %12) #6
  %177 = load i32, ptr %5, align 4, !tbaa !3
  %178 = ashr i32 %177, 2
  %179 = sub nsw i32 %178, 191
  store i32 %179, ptr %12, align 4, !tbaa !3
  call void @llvm.lifetime.start.p0(i64 4, ptr %13) #6
  %180 = load i32, ptr %5, align 4, !tbaa !3
  %181 = and i32 %180, 3
  %182 = add nsw i32 %181, 1
  store i32 %182, ptr %13, align 4, !tbaa !3
  %183 = load i32, ptr %13, align 4, !tbaa !3
  switch i32 %183, label %197 [
    i32 4, label %184
    i32 3, label %187
    i32 2, label %190
    i32 1, label %193
    i32 0, label %196
  ]

184:                                              ; preds = %176
  %185 = load i32, ptr %12, align 4, !tbaa !3
  %186 = mul nsw i32 %185, 12960000
  store i32 %186, ptr %12, align 4, !tbaa !3
  br label %198

187:                                              ; preds = %176
  %188 = load i32, ptr %12, align 4, !tbaa !3
  %189 = mul nsw i32 %188, 216000
  store i32 %189, ptr %12, align 4, !tbaa !3
  br label %198

190:                                              ; preds = %176
  %191 = load i32, ptr %12, align 4, !tbaa !3
  %192 = mul nsw i32 %191, 3600
  store i32 %192, ptr %12, align 4, !tbaa !3
  br label %198

193:                                              ; preds = %176
  %194 = load i32, ptr %12, align 4, !tbaa !3
  %195 = mul nsw i32 %194, 60
  store i32 %195, ptr %12, align 4, !tbaa !3
  br label %198

196:                                              ; preds = %176
  br label %197

197:                                              ; preds = %176, %196
  br label %198

198:                                              ; preds = %197, %193, %190, %187, %184
  %199 = load i32, ptr %12, align 4, !tbaa !3
  %200 = sitofp i32 %199 to double
  store double %200, ptr %2, align 8
  store i32 1, ptr %6, align 4
  call void @llvm.lifetime.end.p0(i64 4, ptr %13) #6
  call void @llvm.lifetime.end.p0(i64 4, ptr %12) #6
  br label %238

201:                                              ; preds = %173
  %202 = load i32, ptr %5, align 4, !tbaa !3
  %203 = icmp slt i32 %202, 828
  br i1 %203, label %204, label %219

204:                                              ; preds = %201
  call void @llvm.lifetime.start.p0(i64 4, ptr %14) #6
  %205 = load i32, ptr %5, align 4, !tbaa !3
  %206 = sub nsw i32 %205, 804
  store i32 %206, ptr %14, align 4, !tbaa !3
  call void @llvm.lifetime.start.p0(i64 4, ptr %15) #6
  %207 = load i32, ptr %14, align 4, !tbaa !3
  %208 = and i32 %207, 3
  %209 = mul nsw i32 2, %208
  %210 = add nsw i32 %209, 1
  store i32 %210, ptr %15, align 4, !tbaa !3
  call void @llvm.lifetime.start.p0(i64 4, ptr %16) #6
  %211 = load i32, ptr %14, align 4, !tbaa !3
  %212 = ashr i32 %211, 2
  %213 = shl i32 20, %212
  store i32 %213, ptr %16, align 4, !tbaa !3
  %214 = load i32, ptr %15, align 4, !tbaa !3
  %215 = sitofp i32 %214 to double
  %216 = load i32, ptr %16, align 4, !tbaa !3
  %217 = sitofp i32 %216 to double
  %218 = fdiv double %215, %217
  store double %218, ptr %2, align 8
  store i32 1, ptr %6, align 4
  call void @llvm.lifetime.end.p0(i64 4, ptr %16) #6
  call void @llvm.lifetime.end.p0(i64 4, ptr %15) #6
  call void @llvm.lifetime.end.p0(i64 4, ptr %14) #6
  br label %238

219:                                              ; preds = %201
  %220 = load i32, ptr %5, align 4, !tbaa !3
  %221 = icmp slt i32 %220, 844
  br i1 %221, label %222, label %237

222:                                              ; preds = %219
  call void @llvm.lifetime.start.p0(i64 4, ptr %17) #6
  %223 = load i32, ptr %5, align 4, !tbaa !3
  %224 = sub nsw i32 %223, 828
  store i32 %224, ptr %17, align 4, !tbaa !3
  call void @llvm.lifetime.start.p0(i64 4, ptr %18) #6
  %225 = load i32, ptr %17, align 4, !tbaa !3
  %226 = and i32 %225, 3
  %227 = mul nsw i32 2, %226
  %228 = add nsw i32 %227, 1
  store i32 %228, ptr %18, align 4, !tbaa !3
  call void @llvm.lifetime.start.p0(i64 4, ptr %19) #6
  %229 = load i32, ptr %17, align 4, !tbaa !3
  %230 = ashr i32 %229, 2
  %231 = shl i32 32, %230
  store i32 %231, ptr %19, align 4, !tbaa !3
  %232 = load i32, ptr %18, align 4, !tbaa !3
  %233 = sitofp i32 %232 to double
  %234 = load i32, ptr %19, align 4, !tbaa !3
  %235 = sitofp i32 %234 to double
  %236 = fdiv double %233, %235
  store double %236, ptr %2, align 8
  store i32 1, ptr %6, align 4
  call void @llvm.lifetime.end.p0(i64 4, ptr %19) #6
  call void @llvm.lifetime.end.p0(i64 4, ptr %18) #6
  call void @llvm.lifetime.end.p0(i64 4, ptr %17) #6
  br label %238

237:                                              ; preds = %219
  store double 0xC19D6F3454000000, ptr %2, align 8
  store i32 1, ptr %6, align 4
  br label %238

238:                                              ; preds = %237, %222, %204, %198, %171, %126, %119, %112, %105, %101
  call void @llvm.lifetime.end.p0(i64 4, ptr %5) #6
  call void @llvm.lifetime.end.p0(i64 4, ptr %4) #6
  %239 = load double, ptr %2, align 8
  ret double %239
}