; Function Attrs: mustprogress nofree norecurse nosync nounwind willreturn memory(none) uwtable
define double @u_getNumericValue_77(i32 noundef %0) local_unnamed_addr #0 {
  %2 = icmp ult i32 %0, 55296
  br i1 %2, label %3, label %5

3:                                                ; preds = %1
  %4 = lshr i32 %0, 5
  br label %.sink.split

5:                                                ; preds = %1
  %6 = icmp ult i32 %0, 65536
  br i1 %6, label %7, label %12

7:                                                ; preds = %5
  %8 = icmp samesign ult i32 %0, 56320
  %9 = select i1 %8, i32 320, i32 0
  %10 = lshr i32 %0, 5
  %11 = add nuw nsw i32 %9, %10
  br label %.sink.split

12:                                               ; preds = %5
  %13 = icmp ugt i32 %0, 1114111
  br i1 %13, label %32, label %14

14:                                               ; preds = %12
  %15 = lshr i32 %0, 11
  %16 = zext nneg i32 %15 to i64
  %17 = getelementptr inbounds nuw i16, ptr @_ZL15propsTrie_index, i64 %16
  %18 = getelementptr inbounds nuw i8, ptr %17, i64 4160
  %19 = load i16, ptr %18, align 2, !tbaa !3
  %20 = zext i16 %19 to i32
  %21 = lshr i32 %0, 5
  %22 = and i32 %21, 63
  %23 = add nuw nsw i32 %22, %20
  br label %.sink.split

.sink.split:                                      ; preds = %3, %14, %7
  %.sink73 = phi i32 [ %11, %7 ], [ %23, %14 ], [ %4, %3 ]
  %24 = zext nneg i32 %.sink73 to i64
  %25 = getelementptr inbounds nuw i16, ptr @_ZL15propsTrie_index, i64 %24
  %26 = load i16, ptr %25, align 2, !tbaa !3
  %27 = zext i16 %26 to i32
  %28 = shl nuw nsw i32 %27, 2
  %29 = and i32 %0, 31
  %30 = add nuw nsw i32 %28, %29
  %31 = zext nneg i32 %30 to i64
  br label %32

32:                                               ; preds = %.sink.split, %12
  %33 = phi i64 [ 4876, %12 ], [ %31, %.sink.split ]
  %34 = getelementptr inbounds nuw i16, ptr @_ZL15propsTrie_index, i64 %33
  %35 = load i16, ptr %34, align 2, !tbaa !3
  %36 = lshr i16 %35, 6
  %37 = zext nneg i16 %36 to i32
  %38 = icmp ult i16 %35, 64
  br i1 %38, label %114, label %39

39:                                               ; preds = %32
  %40 = icmp ult i16 %35, 704
  br i1 %40, label %41, label %44

41:                                               ; preds = %39
  %42 = add nsw i32 %37, -1
  %43 = uitofp nneg i32 %42 to double
  br label %114

44:                                               ; preds = %39
  %45 = icmp ult i16 %35, 1344
  br i1 %45, label %46, label %49

46:                                               ; preds = %44
  %47 = add nsw i32 %37, -11
  %48 = uitofp nneg i32 %47 to double
  br label %114

49:                                               ; preds = %44
  %50 = icmp ult i16 %35, 11264
  br i1 %50, label %51, label %54

51:                                               ; preds = %49
  %52 = add nsw i32 %37, -21
  %53 = uitofp nneg i32 %52 to double
  br label %114

54:                                               ; preds = %49
  %55 = icmp ult i16 %35, 30720
  br i1 %55, label %56, label %64

56:                                               ; preds = %54
  %57 = lshr i32 %37, 4
  %58 = add nsw i32 %57, -12
  %59 = and i32 %37, 15
  %60 = add nuw nsw i32 %59, 1
  %61 = sitofp i32 %58 to double
  %62 = uitofp nneg i32 %60 to double
  %63 = fdiv double %61, %62
  br label %114

64:                                               ; preds = %54
  %65 = icmp ult i16 %35, -16384
  br i1 %65, label %66, label %82

66:                                               ; preds = %64
  %67 = lshr i32 %37, 5
  %68 = add nsw i32 %67, -14
  %69 = and i32 %37, 31
  %70 = add nuw nsw i32 %69, 2
  %71 = uitofp nneg i32 %68 to double
  %72 = icmp samesign ugt i32 %69, 1
  br i1 %72, label %.lr.ph, label %._crit_edge

.lr.ph:                                           ; preds = %66, %.lr.ph
  %.05865 = phi double [ %73, %.lr.ph ], [ %71, %66 ]
  %.05964 = phi i32 [ %74, %.lr.ph ], [ %70, %66 ]
  %73 = fmul double %.05865, 1.000000e+04
  %74 = add nsw i32 %.05964, -4
  %75 = icmp samesign ugt i32 %74, 3
  br i1 %75, label %.lr.ph, label %._crit_edge, !llvm.loop !13

._crit_edge:                                      ; preds = %.lr.ph, %66
  %.059.lcssa = phi i32 [ %70, %66 ], [ %74, %.lr.ph ]
  %.058.lcssa = phi double [ %71, %66 ], [ %73, %.lr.ph ]
  switch i32 %.059.lcssa, label %._crit_edge.unreachabledefault [
    i32 3, label %76
    i32 2, label %78
    i32 1, label %80
    i32 0, label %114
  ]

76:                                               ; preds = %._crit_edge
  %77 = fmul double %.058.lcssa, 1.000000e+03
  br label %114

78:                                               ; preds = %._crit_edge
  %79 = fmul double %.058.lcssa, 1.000000e+02
  br label %114

80:                                               ; preds = %._crit_edge
  %81 = fmul double %.058.lcssa, 1.000000e+01
  br label %114

82:                                               ; preds = %64
  %83 = icmp samesign ult i16 %35, -14080
  br i1 %83, label %switch.lookup, label %90

switch.lookup:                                    ; preds = %82
  %84 = lshr i32 %37, 2
  %85 = add nsw i32 %84, -191
  %86 = and i32 %37, 3
  %87 = zext nneg i32 %86 to i64
  %switch.gep = getelementptr inbounds nuw [4 x i32], ptr @switch.table.u_getNumericValue_77, i64 0, i64 %87
  %switch.load = load i32, ptr %switch.gep, align 4
  %88 = mul nuw nsw i32 %85, %switch.load
  %89 = uitofp nneg i32 %88 to double
  br label %114

90:                                               ; preds = %82
  %91 = icmp samesign ult i16 %35, -12544
  br i1 %91, label %92, label %102

92:                                               ; preds = %90
  %93 = add nsw i32 %37, -804
  %94 = shl nuw nsw i32 %37, 1
  %95 = and i32 %94, 6
  %96 = or disjoint i32 %95, 1
  %97 = lshr i32 %93, 2
  %98 = shl i32 20, %97
  %99 = uitofp nneg i32 %96 to double
  %100 = uitofp nneg i32 %98 to double
  %101 = fdiv double %99, %100
  br label %114

102:                                              ; preds = %90
  %103 = icmp samesign ult i16 %35, -11520
  br i1 %103, label %104, label %114

104:                                              ; preds = %102
  %105 = add nsw i32 %37, -828
  %106 = shl nuw nsw i32 %37, 1
  %107 = and i32 %106, 6
  %108 = or disjoint i32 %107, 1
  %109 = lshr i32 %105, 2
  %110 = shl i32 32, %109
  %111 = uitofp nneg i32 %108 to double
  %112 = uitofp nneg i32 %110 to double
  %113 = fdiv double %111, %112
  br label %114

._crit_edge.unreachabledefault:                   ; preds = %._crit_edge
  unreachable

114:                                              ; preds = %._crit_edge, %102, %76, %78, %80, %32, %104, %92, %switch.lookup, %56, %51, %46, %41
  %.0 = phi double [ %43, %41 ], [ %48, %46 ], [ %53, %51 ], [ %63, %56 ], [ %89, %switch.lookup ], [ %101, %92 ], [ %113, %104 ], [ 0xC19D6F3454000000, %32 ], [ %.058.lcssa, %._crit_edge ], [ %81, %80 ], [ %79, %78 ], [ %77, %76 ], [ 0xC19D6F3454000000, %102 ]
  ret double %.0
}